target datalayout = "e-m:e-p270:32:32-p271:32:32-p272:64:64-i64:64-i128:128-f80:128-n8:16:32:64-S128"
target triple = "x86_64-pc-linux-gnu"

; Function Attrs: nounwind uwtable
define internal i32 @clamp(i32 noundef %0, i32 noundef %1, i32 noundef %2) #0 {
  %4 = alloca i32, align 4
  %5 = alloca i32, align 4
  %6 = alloca i32, align 4
  store i32 %0, ptr %4, align 4
  store i32 %1, ptr %5, align 4
  store i32 %2, ptr %6, align 4
  %7 = load i32, ptr %4, align 4
  %8 = load i32, ptr %5, align 4
  %9 = icmp slt i32 %7, %8
  br i1 %9, label %10, label %12

10:                                               ; preds = %3
  %11 = load i32, ptr %5, align 4
  br label %22

12:                                               ; preds = %3
  %13 = load i32, ptr %4, align 4
  %14 = load i32, ptr %6, align 4
  %15 = icmp sgt i32 %13, %14
  br i1 %15, label %16, label %18

16:                                               ; preds = %12
  %17 = load i32, ptr %6, align 4
  br label %20

18:                                               ; preds = %12
  %19 = load i32, ptr %4, align 4
  br label %20

20:                                               ; preds = %18, %16
  %21 = phi i32 [ %17, %16 ], [ %19, %18 ]
  br label %22

22:                                               ; preds = %20, %10
  %23 = phi i32 [ %11, %10 ], [ %21, %20 ]
  ret i32 %23
}

; Function Attrs: nounwind uwtable
define internal void @diffwtd_mask(ptr noundef %0, i32 noundef %1, i32 noundef %2, ptr noundef %3, i32 noundef %4, ptr noundef %5, i32 noundef %6, i32 noundef %7, i32 noundef %8) #0 {
  %10 = alloca ptr, align 8
  %11 = alloca i32, align 4
  %12 = alloca i32, align 4
  %13 = alloca ptr, align 8
  %14 = alloca i32, align 4
  %15 = alloca ptr, align 8
  %16 = alloca i32, align 4
  %17 = alloca i32, align 4
  %18 = alloca i32, align 4
  %19 = alloca i32, align 4
  %20 = alloca i32, align 4
  %21 = alloca i32, align 4
  %22 = alloca i32, align 4
  store ptr %0, ptr %10, align 8
  store i32 %1, ptr %11, align 4
  store i32 %2, ptr %12, align 4
  store ptr %3, ptr %13, align 8
  store i32 %4, ptr %14, align 4
  store ptr %5, ptr %15, align 8
  store i32 %6, ptr %16, align 4
  store i32 %7, ptr %17, align 4
  store i32 %8, ptr %18, align 4
  store i32 0, ptr %19, align 4
  br label %23

23:                                               ; preds = %82, %9
  %24 = load i32, ptr %19, align 4
  %25 = load i32, ptr %17, align 4
  %26 = icmp slt i32 %24, %25
  br i1 %26, label %27, label %85

27:                                               ; preds = %23
  store i32 0, ptr %20, align 4
  br label %28

28:                                               ; preds = %78, %27
  %29 = load i32, ptr %20, align 4
  %30 = load i32, ptr %18, align 4
  %31 = icmp slt i32 %29, %30
  br i1 %31, label %32, label %81

32:                                               ; preds = %28
  %33 = load ptr, ptr %13, align 8
  %34 = load i32, ptr %19, align 4
  %35 = load i32, ptr %14, align 4
  %36 = mul nsw i32 %34, %35
  %37 = load i32, ptr %20, align 4
  %38 = add nsw i32 %36, %37
  %39 = sext i32 %38 to i64
  %40 = getelementptr inbounds i8, ptr %33, i64 %39
  %41 = load i8, ptr %40, align 1
  %42 = zext i8 %41 to i32
  %43 = load ptr, ptr %15, align 8
  %44 = load i32, ptr %19, align 4
  %45 = load i32, ptr %16, align 4
  %46 = mul nsw i32 %44, %45
  %47 = load i32, ptr %20, align 4
  %48 = add nsw i32 %46, %47
  %49 = sext i32 %48 to i64
  %50 = getelementptr inbounds i8, ptr %43, i64 %49
  %51 = load i8, ptr %50, align 1
  %52 = zext i8 %51 to i32
  %53 = sub nsw i32 %42, %52
  %54 = call i32 @llvm.abs.i32(i32 %53, i1 true)
  store i32 %54, ptr %22, align 4
  %55 = load i32, ptr %12, align 4
  %56 = load i32, ptr %22, align 4
  %57 = sdiv i32 %56, 16
  %58 = add nsw i32 %55, %57
  %59 = call i32 @clamp(i32 noundef %58, i32 noundef 0, i32 noundef 64)
  store i32 %59, ptr %21, align 4
  %60 = load i32, ptr %11, align 4
  %61 = icmp ne i32 %60, 0
  br i1 %61, label %62, label %65

62:                                               ; preds = %32
  %63 = load i32, ptr %21, align 4
  %64 = sub nsw i32 64, %63
  br label %67

65:                                               ; preds = %32
  %66 = load i32, ptr %21, align 4
  br label %67

67:                                               ; preds = %65, %62
  %68 = phi i32 [ %64, %62 ], [ %66, %65 ]
  %69 = trunc i32 %68 to i8
  %70 = load ptr, ptr %10, align 8
  %71 = load i32, ptr %19, align 4
  %72 = load i32, ptr %18, align 4
  %73 = mul nsw i32 %71, %72
  %74 = load i32, ptr %20, align 4
  %75 = add nsw i32 %73, %74
  %76 = sext i32 %75 to i64
  %77 = getelementptr inbounds i8, ptr %70, i64 %76
  store i8 %69, ptr %77, align 1
  br label %78

78:                                               ; preds = %67
  %79 = load i32, ptr %20, align 4
  %80 = add nsw i32 %79, 1
  store i32 %80, ptr %20, align 4
  br label %28, !llvm.loop !7

81:                                               ; preds = %28
  br label %82

82:                                               ; preds = %81
  %83 = load i32, ptr %19, align 4
  %84 = add nsw i32 %83, 1
  store i32 %84, ptr %19, align 4
  br label %23, !llvm.loop !8

85:                                               ; preds = %23
  ret void
}

; Function Attrs: nounwind uwtable
define hidden void @av1_build_compound_diffwtd_mask_c(ptr noundef %0, i8 noundef zeroext %1, ptr noundef %2, i32 noundef %3, ptr noundef %4, i32 noundef %5, i32 noundef %6, i32 noundef %7) #0 {
  %9 = alloca ptr, align 8
  %10 = alloca i8, align 1
  %11 = alloca ptr, align 8
  %12 = alloca i32, align 4
  %13 = alloca ptr, align 8
  %14 = alloca i32, align 4
  %15 = alloca i32, align 4
  %16 = alloca i32, align 4
  store ptr %0, ptr %9, align 8
  store i8 %1, ptr %10, align 1
  store ptr %2, ptr %11, align 8
  store i32 %3, ptr %12, align 4
  store ptr %4, ptr %13, align 8
  store i32 %5, ptr %14, align 4
  store i32 %6, ptr %15, align 4
  store i32 %7, ptr %16, align 4
  %17 = load i8, ptr %10, align 1
  %18 = zext i8 %17 to i32
  switch i32 %18, label %35 [
    i32 0, label %19
    i32 1, label %27
  ]

19:                                               ; preds = %8
  %20 = load ptr, ptr %9, align 8
  %21 = load ptr, ptr %11, align 8
  %22 = load i32, ptr %12, align 4
  %23 = load ptr, ptr %13, align 8
  %24 = load i32, ptr %14, align 4
  %25 = load i32, ptr %15, align 4
  %26 = load i32, ptr %16, align 4
  call void @diffwtd_mask(ptr noundef %20, i32 noundef 0, i32 noundef 38, ptr noundef %21, i32 noundef %22, ptr noundef %23, i32 noundef %24, i32 noundef %25, i32 noundef %26)
  br label %36

27:                                               ; preds = %8
  %28 = load ptr, ptr %9, align 8
  %29 = load ptr, ptr %11, align 8
  %30 = load i32, ptr %12, align 4
  %31 = load ptr, ptr %13, align 8
  %32 = load i32, ptr %14, align 4
  %33 = load i32, ptr %15, align 4
  %34 = load i32, ptr %16, align 4
  call void @diffwtd_mask(ptr noundef %28, i32 noundef 1, i32 noundef 38, ptr noundef %29, i32 noundef %30, ptr noundef %31, i32 noundef %32, i32 noundef %33, i32 noundef %34)
  br label %36

35:                                               ; preds = %8
  br label %36

36:                                               ; preds = %35, %27, %19
  ret void
}