; Function Attrs: nofree norecurse nosync nounwind memory(argmem: readwrite) uwtable
define hidden void @av1_build_compound_diffwtd_mask_c(ptr nocapture noundef writeonly %0, i8 noundef zeroext %1, ptr nocapture noundef readonly %2, i32 noundef %3, ptr nocapture noundef readonly %4, i32 noundef %5, i32 noundef %6, i32 noundef %7) local_unnamed_addr #7 {
  switch i8 %1, label %diffwtd_mask.exit [
    i8 0, label %9
    i8 1, label %28
  ]

9:                                                ; preds = %8
  %10 = icmp sgt i32 %6, 0
  %11 = icmp sgt i32 %7, 0
  %or.cond.i = and i1 %10, %11
  br i1 %or.cond.i, label %.preheader.lr.ph.split.us.i, label %diffwtd_mask.exit

.preheader.lr.ph.split.us.i:                      ; preds = %9
  %12 = sext i32 %3 to i64
  %13 = sext i32 %5 to i64
  %14 = zext nneg i32 %7 to i64
  %wide.trip.count46.i = zext nneg i32 %6 to i64
  br label %.preheader.us.us.i

.preheader.us.us.i:                               ; preds = %._crit_edge.split.us.us.us.i, %.preheader.lr.ph.split.us.i
  %indvars.iv43.i = phi i64 [ %indvars.iv.next44.i, %._crit_edge.split.us.us.us.i ], [ 0, %.preheader.lr.ph.split.us.i ]
  %15 = mul nsw i64 %indvars.iv43.i, %12
  %16 = mul nsw i64 %indvars.iv43.i, %13
  %17 = mul nuw nsw i64 %indvars.iv43.i, %14
  %invariant.gep53.i = getelementptr i8, ptr %2, i64 %15
  %invariant.gep55.i = getelementptr i8, ptr %4, i64 %16
  %invariant.gep57.i = getelementptr inbounds i8, ptr %0, i64 %17
  br label %18

18:                                               ; preds = %18, %.preheader.us.us.i
  %indvars.iv38.i = phi i64 [ %indvars.iv.next39.i, %18 ], [ 0, %.preheader.us.us.i ]
  %gep54.i = getelementptr i8, ptr %invariant.gep53.i, i64 %indvars.iv38.i
  %19 = load i8, ptr %gep54.i, align 1
  %20 = zext i8 %19 to i32
  %gep56.i = getelementptr i8, ptr %invariant.gep55.i, i64 %indvars.iv38.i
  %21 = load i8, ptr %gep56.i, align 1
  %22 = zext i8 %21 to i32
  %23 = sub nsw i32 %20, %22
  %24 = tail call i32 @llvm.abs.i32(i32 %23, i1 true)
  %25 = lshr i32 %24, 4
  %26 = trunc nuw nsw i32 %25 to i8
  %27 = add nuw nsw i8 %26, 38
  %gep58.i = getelementptr inbounds i8, ptr %invariant.gep57.i, i64 %indvars.iv38.i
  store i8 %27, ptr %gep58.i, align 1
  %indvars.iv.next39.i = add nuw nsw i64 %indvars.iv38.i, 1
  %exitcond42.not.i = icmp eq i64 %indvars.iv.next39.i, %14
  br i1 %exitcond42.not.i, label %._crit_edge.split.us.us.us.i, label %18, !llvm.loop !7

._crit_edge.split.us.us.us.i:                     ; preds = %18
  %indvars.iv.next44.i = add nuw nsw i64 %indvars.iv43.i, 1
  %exitcond47.not.i = icmp eq i64 %indvars.iv.next44.i, %wide.trip.count46.i
  br i1 %exitcond47.not.i, label %diffwtd_mask.exit, label %.preheader.us.us.i, !llvm.loop !8

28:                                               ; preds = %8
  %29 = icmp sgt i32 %6, 0
  %30 = icmp sgt i32 %7, 0
  %or.cond.i14 = and i1 %29, %30
  br i1 %or.cond.i14, label %.preheader.lr.ph.split.us.i15, label %diffwtd_mask.exit

.preheader.lr.ph.split.us.i15:                    ; preds = %28
  %31 = sext i32 %3 to i64
  %32 = sext i32 %5 to i64
  %33 = zext nneg i32 %7 to i64
  %wide.trip.count46.i16 = zext nneg i32 %6 to i64
  br label %.preheader.us.i

.preheader.us.i:                                  ; preds = %._crit_edge.split.us28.i, %.preheader.lr.ph.split.us.i15
  %indvars.iv33.i = phi i64 [ %indvars.iv.next34.i, %._crit_edge.split.us28.i ], [ 0, %.preheader.lr.ph.split.us.i15 ]
  %34 = mul nsw i64 %indvars.iv33.i, %31
  %35 = mul nsw i64 %indvars.iv33.i, %32
  %36 = mul nuw nsw i64 %indvars.iv33.i, %33
  %invariant.gep.i = getelementptr i8, ptr %2, i64 %34
  %invariant.gep49.i = getelementptr i8, ptr %4, i64 %35
  %invariant.gep51.i = getelementptr inbounds i8, ptr %0, i64 %36
  br label %37

37:                                               ; preds = %37, %.preheader.us.i
  %indvars.iv.i = phi i64 [ 0, %.preheader.us.i ], [ %indvars.iv.next.i, %37 ]
  %gep.i = getelementptr i8, ptr %invariant.gep.i, i64 %indvars.iv.i
  %38 = load i8, ptr %gep.i, align 1
  %39 = zext i8 %38 to i32
  %gep50.i = getelementptr i8, ptr %invariant.gep49.i, i64 %indvars.iv.i
  %40 = load i8, ptr %gep50.i, align 1
  %41 = zext i8 %40 to i32
  %42 = sub nsw i32 %39, %41
  %43 = tail call i32 @llvm.abs.i32(i32 %42, i1 true)
  %44 = lshr i32 %43, 4
  %45 = trunc nuw nsw i32 %44 to i8
  %46 = sub nuw nsw i8 26, %45
  %gep52.i = getelementptr inbounds i8, ptr %invariant.gep51.i, i64 %indvars.iv.i
  store i8 %46, ptr %gep52.i, align 1
  %indvars.iv.next.i = add nuw nsw i64 %indvars.iv.i, 1
  %exitcond.not.i = icmp eq i64 %indvars.iv.next.i, %33
  br i1 %exitcond.not.i, label %._crit_edge.split.us28.i, label %37, !llvm.loop !7

._crit_edge.split.us28.i:                         ; preds = %37
  %indvars.iv.next34.i = add nuw nsw i64 %indvars.iv33.i, 1
  %exitcond37.not.i = icmp eq i64 %indvars.iv.next34.i, %wide.trip.count46.i16
  br i1 %exitcond37.not.i, label %diffwtd_mask.exit, label %.preheader.us.i, !llvm.loop !8

diffwtd_mask.exit:                                ; preds = %._crit_edge.split.us28.i, %._crit_edge.split.us.us.us.i, %28, %9, %8
  ret void
}